target datalayout = "e-m:e-p270:32:32-p271:32:32-p272:64:64-i64:64-i128:128-f80:128-n8:16:32:64-S128"
target triple = "x86_64-pc-linux-gnu"

%union.anon.9 = type { i64 }
%struct.Property = type { ptr, ptr, i64, ptr, i64, %union.anon.9, ptr, i32, i32, i8, i8 }
%struct.ObjectClass = type { ptr, ptr, [4 x ptr], [4 x ptr], ptr, ptr }
%struct.DeviceClass = type { %struct.ObjectClass, [1 x i64], ptr, ptr, ptr, i16, i8, i8, ptr, ptr, ptr, ptr, ptr, ptr }
%struct.PCIDeviceClass = type { %struct.DeviceClass, ptr, ptr, ptr, ptr, i16, i16, i8, i16, i16, i16, ptr }
%struct.VirtioPCIClass = type { %struct.PCIDeviceClass, ptr, ptr }
%struct.ResettableClass = type { %struct.InterfaceClass, %struct.ResettablePhases, ptr, ptr }
%struct.InterfaceClass = type { %struct.ObjectClass, ptr }
%struct.ResettablePhases = type { ptr, ptr, ptr }

@.str = private unnamed_addr constant [11 x i8] c"virtio-pci\00", align 1
@.str.10 = private unnamed_addr constant [7 x i8] c"device\00", align 1
@.str.11 = private unnamed_addr constant [101 x i8] c"/home/dtcxzyw/WorkSpace/Projects/compilers/llvm-opt-benchmark/bench/qemu/qemu/include/hw/qdev-core.h\00", align 1
@__func__.DEVICE_CLASS = private unnamed_addr constant [13 x i8] c"DEVICE_CLASS\00", align 1
@.str.15 = private unnamed_addr constant [109 x i8] c"/home/dtcxzyw/WorkSpace/Projects/compilers/llvm-opt-benchmark/bench/qemu/qemu/include/hw/virtio/virtio-pci.h\00", align 1
@.str.70 = private unnamed_addr constant [11 x i8] c"pci-device\00", align 1
@.str.72 = private unnamed_addr constant [106 x i8] c"/home/dtcxzyw/WorkSpace/Projects/compilers/llvm-opt-benchmark/bench/qemu/qemu/include/hw/pci/pci_device.h\00", align 1
@__func__.PCI_DEVICE_CLASS = private unnamed_addr constant [17 x i8] c"PCI_DEVICE_CLASS\00", align 1
@__func__.VIRTIO_PCI_CLASS = private unnamed_addr constant [17 x i8] c"VIRTIO_PCI_CLASS\00", align 1
@.str.73 = private unnamed_addr constant [11 x i8] c"resettable\00", align 1
@.str.74 = private unnamed_addr constant [102 x i8] c"/home/dtcxzyw/WorkSpace/Projects/compilers/llvm-opt-benchmark/bench/qemu/qemu/include/hw/resettable.h\00", align 1
@__func__.RESETTABLE_CLASS = private unnamed_addr constant [17 x i8] c"RESETTABLE_CLASS\00", align 1

; Function Attrs: inlinehint nounwind sspstrong uwtable
define internal ptr @RESETTABLE_CLASS(ptr noundef %0) #4 {
  %2 = alloca ptr, align 8
  store ptr %0, ptr %2, align 8
  %3 = load ptr, ptr %2, align 8
  %4 = call ptr @object_class_dynamic_cast_assert(ptr noundef %3, ptr noundef @.str.73, ptr noundef @.str.74, i32 noundef 22, ptr noundef @__func__.RESETTABLE_CLASS)
  ret ptr %4
}

; Function Attrs: inlinehint nounwind sspstrong uwtable
define internal ptr @VIRTIO_PCI_CLASS(ptr noundef %0) #4 {
  %2 = alloca ptr, align 8
  store ptr %0, ptr %2, align 8
  %3 = load ptr, ptr %2, align 8
  %4 = call ptr @object_class_dynamic_cast_assert(ptr noundef %3, ptr noundef @.str, ptr noundef @.str.15, i32 noundef 107, ptr noundef @__func__.VIRTIO_PCI_CLASS)
  ret ptr %4
}

; Function Attrs: inlinehint nounwind sspstrong uwtable
define internal ptr @PCI_DEVICE_CLASS(ptr noundef %0) #4 {
  %2 = alloca ptr, align 8
  store ptr %0, ptr %2, align 8
  %3 = load ptr, ptr %2, align 8
  %4 = call ptr @object_class_dynamic_cast_assert(ptr noundef %3, ptr noundef @.str.70, ptr noundef @.str.72, i32 noundef 11, ptr noundef @__func__.PCI_DEVICE_CLASS)
  ret ptr %4
}

; Function Attrs: inlinehint nounwind sspstrong uwtable
define internal ptr @DEVICE_CLASS(ptr noundef %0) #4 {
  %2 = alloca ptr, align 8
  store ptr %0, ptr %2, align 8
  %3 = load ptr, ptr %2, align 8
  %4 = call ptr @object_class_dynamic_cast_assert(ptr noundef %3, ptr noundef @.str.10, ptr noundef @.str.11, i32 noundef 77, ptr noundef @__func__.DEVICE_CLASS)
  ret ptr %4
}

; Function Attrs: nounwind sspstrong uwtable
define internal void @virtio_pci_class_init(ptr noundef %0, ptr noundef %1) #0 {
  %3 = alloca ptr, align 8
  %4 = alloca ptr, align 8
  %5 = alloca ptr, align 8
  %6 = alloca ptr, align 8
  %7 = alloca ptr, align 8
  %8 = alloca ptr, align 8
  %9 = alloca i64, align 8
  store ptr %0, ptr %3, align 8
  store ptr %1, ptr %4, align 8
  call void @llvm.lifetime.start.p0(i64 8, ptr %5) #13
  %10 = load ptr, ptr %3, align 8
  %11 = call ptr @DEVICE_CLASS(ptr noundef %10)
  store ptr %11, ptr %5, align 8
  call void @llvm.lifetime.start.p0(i64 8, ptr %6) #13
  %12 = load ptr, ptr %3, align 8
  %13 = call ptr @PCI_DEVICE_CLASS(ptr noundef %12)
  store ptr %13, ptr %6, align 8
  call void @llvm.lifetime.start.p0(i64 8, ptr %7) #13
  %14 = load ptr, ptr %3, align 8
  %15 = call ptr @VIRTIO_PCI_CLASS(ptr noundef %14)
  store ptr %15, ptr %7, align 8
  call void @llvm.lifetime.start.p0(i64 8, ptr %8) #13
  %16 = load ptr, ptr %3, align 8
  %17 = call ptr @RESETTABLE_CLASS(ptr noundef %16)
  store ptr %17, ptr %8, align 8
  br label %18

18:                                               ; preds = %2
  call void @llvm.lifetime.start.p0(i64 8, ptr %9) #13
  store i64 14, ptr %9, align 8
  %19 = load i64, ptr %9, align 8
  %20 = sub i64 %19, 1
  %21 = getelementptr inbounds nuw [14 x %struct.Property], ptr @virtio_pci_properties, i64 0, i64 %20
  %22 = getelementptr inbounds nuw %struct.Property, ptr %21, i32 0, i32 0
  %23 = load ptr, ptr %22, align 8
  %24 = icmp eq ptr %23, null
  br i1 %24, label %25, label %26

25:                                               ; preds = %18
  call void @qemu_build_not_reached_always() #15, !srcloc !24
  unreachable

26:                                               ; preds = %18
  %27 = load ptr, ptr %5, align 8
  %28 = load i64, ptr %9, align 8
  call void @device_class_set_props_n(ptr noundef %27, ptr noundef @virtio_pci_properties, i64 noundef %28)
  call void @llvm.lifetime.end.p0(i64 8, ptr %9) #13
  br label %29

29:                                               ; preds = %26
  br label %30

30:                                               ; preds = %29
  %31 = load ptr, ptr %6, align 8
  %32 = getelementptr inbounds nuw %struct.PCIDeviceClass, ptr %31, i32 0, i32 1
  store ptr @virtio_pci_realize, ptr %32, align 8
  %33 = load ptr, ptr %6, align 8
  %34 = getelementptr inbounds nuw %struct.PCIDeviceClass, ptr %33, i32 0, i32 2
  store ptr @virtio_pci_exit, ptr %34, align 8
  %35 = load ptr, ptr %6, align 8
  %36 = getelementptr inbounds nuw %struct.PCIDeviceClass, ptr %35, i32 0, i32 5
  store i16 6900, ptr %36, align 8
  %37 = load ptr, ptr %6, align 8
  %38 = getelementptr inbounds nuw %struct.PCIDeviceClass, ptr %37, i32 0, i32 7
  store i8 0, ptr %38, align 4
  %39 = load ptr, ptr %6, align 8
  %40 = getelementptr inbounds nuw %struct.PCIDeviceClass, ptr %39, i32 0, i32 8
  store i16 255, ptr %40, align 2
  %41 = load ptr, ptr %5, align 8
  %42 = load ptr, ptr %7, align 8
  %43 = getelementptr inbounds nuw %struct.VirtioPCIClass, ptr %42, i32 0, i32 1
  call void @device_class_set_parent_realize(ptr noundef %41, ptr noundef @virtio_pci_dc_realize, ptr noundef %43)
  %44 = load ptr, ptr %8, align 8
  %45 = getelementptr inbounds nuw %struct.ResettableClass, ptr %44, i32 0, i32 1
  %46 = getelementptr inbounds nuw %struct.ResettablePhases, ptr %45, i32 0, i32 1
  store ptr @virtio_pci_bus_reset_hold, ptr %46, align 8
  %47 = load ptr, ptr %5, align 8
  %48 = getelementptr inbounds nuw %struct.DeviceClass, ptr %47, i32 0, i32 11
  store ptr @virtio_pci_sync_config, ptr %48, align 8
  call void @llvm.lifetime.end.p0(i64 8, ptr %8) #13
  call void @llvm.lifetime.end.p0(i64 8, ptr %7) #13
  call void @llvm.lifetime.end.p0(i64 8, ptr %6) #13
  call void @llvm.lifetime.end.p0(i64 8, ptr %5) #13
  ret void
}