; Function Attrs: nounwind sspstrong uwtable
define internal void @virtio_pci_class_init(ptr noundef %0, ptr readnone captures(none) %1) #0 {
  %3 = tail call ptr @object_class_dynamic_cast_assert(ptr noundef %0, ptr noundef nonnull @.str.10, ptr noundef nonnull @.str.11, i32 noundef 77, ptr noundef nonnull @__func__.DEVICE_CLASS) #15
  %4 = tail call ptr @object_class_dynamic_cast_assert(ptr noundef %0, ptr noundef nonnull @.str.70, ptr noundef nonnull @.str.72, i32 noundef 11, ptr noundef nonnull @__func__.PCI_DEVICE_CLASS) #15
  %5 = tail call ptr @object_class_dynamic_cast_assert(ptr noundef %0, ptr noundef nonnull @.str, ptr noundef nonnull @.str.15, i32 noundef 107, ptr noundef nonnull @__func__.VIRTIO_PCI_CLASS) #15
  %6 = tail call ptr @object_class_dynamic_cast_assert(ptr noundef %0, ptr noundef nonnull @.str.73, ptr noundef nonnull @.str.74, i32 noundef 22, ptr noundef nonnull @__func__.RESETTABLE_CLASS) #15
  tail call void @device_class_set_props_n(ptr noundef %3, ptr noundef nonnull @virtio_pci_properties, i64 noundef 14) #15
  %7 = getelementptr inbounds nuw i8, ptr %4, i64 184
  store ptr @virtio_pci_realize, ptr %7, align 8
  %8 = getelementptr inbounds nuw i8, ptr %4, i64 192
  store ptr @virtio_pci_exit, ptr %8, align 8
  %9 = getelementptr inbounds nuw i8, ptr %4, i64 216
  store i16 6900, ptr %9, align 8
  %10 = getelementptr inbounds nuw i8, ptr %4, i64 220
  store i8 0, ptr %10, align 4
  %11 = getelementptr inbounds nuw i8, ptr %4, i64 222
  store i16 255, ptr %11, align 2
  %12 = getelementptr inbounds nuw i8, ptr %5, i64 240
  tail call void @device_class_set_parent_realize(ptr noundef %3, ptr noundef nonnull @virtio_pci_dc_realize, ptr noundef nonnull %12) #15
  %13 = getelementptr inbounds nuw i8, ptr %6, i64 112
  store ptr @virtio_pci_bus_reset_hold, ptr %13, align 8
  %14 = getelementptr inbounds nuw i8, ptr %3, i64 160
  store ptr @virtio_pci_sync_config, ptr %14, align 8
  ret void
}